; Function Attrs: mustprogress uwtable
define noundef i32 @umsg_toPattern_77(ptr noundef %0, ptr noundef %1, i32 noundef %2, ptr noundef %3) local_unnamed_addr #1 personality ptr @__gxx_personality_v0 {
  %5 = alloca %"class.icu_77::UnicodeString", align 8
  %6 = alloca %"class.icu_77::Char16Ptr", align 8
  %7 = icmp eq ptr %3, null
  br i1 %7, label %38, label %8

8:                                                ; preds = %4
  %9 = load i32, ptr %3, align 4, !tbaa !36
  %10 = icmp slt i32 %9, 1
  br i1 %10, label %11, label %38

11:                                               ; preds = %8
  %12 = icmp eq ptr %0, null
  %13 = icmp slt i32 %2, 0
  %or.cond = or i1 %12, %13
  br i1 %or.cond, label %17, label %14

14:                                               ; preds = %11
  %15 = icmp ne i32 %2, 0
  %16 = icmp eq ptr %1, null
  %or.cond3 = and i1 %16, %15
  br i1 %or.cond3, label %17, label %18

17:                                               ; preds = %14, %11
  store i32 1, ptr %3, align 4, !tbaa !36
  br label %38

18:                                               ; preds = %14
  call void @llvm.lifetime.start.p0(i64 64, ptr nonnull %5) #10
  store ptr getelementptr inbounds nuw inrange(-16, 88) (i8, ptr @_ZTVN6icu_7713UnicodeStringE, i64 16), ptr %5, align 8, !tbaa !34
  %19 = getelementptr inbounds nuw i8, ptr %5, i64 8
  store i16 2, ptr %19, align 8, !tbaa !43
  %20 = icmp eq i32 %2, 0
  %or.cond5 = and i1 %16, %20
  br i1 %or.cond5, label %25, label %21

21:                                               ; preds = %18
  %22 = invoke noundef nonnull align 8 dereferenceable(64) ptr @_ZN6icu_7713UnicodeString5setToEPDsii(ptr noundef nonnull align 8 dereferenceable(64) %5, ptr noundef %1, i32 noundef 0, i32 noundef %2)
          to label %25 unwind label %23

23:                                               ; preds = %25, %21
  %24 = landingpad { ptr, i32 }
          cleanup
  br label %37

25:                                               ; preds = %21, %18
  %26 = load ptr, ptr %0, align 8, !tbaa !34
  %27 = getelementptr inbounds nuw i8, ptr %26, i64 104
  %28 = load ptr, ptr %27, align 8
  %29 = invoke noundef nonnull align 8 dereferenceable(64) ptr %28(ptr noundef nonnull align 8 dereferenceable(512) %0, ptr noundef nonnull align 8 dereferenceable(64) %5)
          to label %30 unwind label %23

30:                                               ; preds = %25
  store ptr %1, ptr %6, align 8, !tbaa !60
  %31 = invoke noundef i32 @_ZNK6icu_7713UnicodeString7extractENS_9Char16PtrEiR10UErrorCode(ptr noundef nonnull align 8 dereferenceable(64) %5, ptr noundef nonnull %6, i32 noundef %2, ptr noundef nonnull align 4 dereferenceable(4) %3)
          to label %32 unwind label %34

32:                                               ; preds = %30
  %33 = load ptr, ptr %6, align 8, !tbaa !60
  call void asm sideeffect "", "rm,~{memory},~{dirflag},~{fpsr},~{flags}"(ptr %33) #10, !srcloc !62
  call void @_ZN6icu_7713UnicodeStringD1Ev(ptr noundef nonnull align 8 dereferenceable(64) %5) #10
  call void @llvm.lifetime.end.p0(i64 64, ptr nonnull %5) #10
  br label %38

34:                                               ; preds = %30
  %35 = landingpad { ptr, i32 }
          cleanup
  %36 = load ptr, ptr %6, align 8, !tbaa !60
  call void asm sideeffect "", "rm,~{memory},~{dirflag},~{fpsr},~{flags}"(ptr %36) #10, !srcloc !62
  br label %37

37:                                               ; preds = %34, %23
  %.pn = phi { ptr, i32 } [ %35, %34 ], [ %24, %23 ]
  call void @_ZN6icu_7713UnicodeStringD1Ev(ptr noundef nonnull align 8 dereferenceable(64) %5) #10
  call void @llvm.lifetime.end.p0(i64 64, ptr nonnull %5) #10
  resume { ptr, i32 } %.pn

38:                                               ; preds = %4, %8, %32, %17
  %.023 = phi i32 [ -1, %17 ], [ %31, %32 ], [ -1, %8 ], [ -1, %4 ]
  ret i32 %.023
}